///////////////////////////////////////////////////////////////////////////////
//                                                                            /
// IAR C/C++ Compiler V8.10.1.40194/W32 for 8051        03/Oct/2015  19:29:30 /
// Copyright 2004-2011 IAR Systems AB.                                        /
//                                                                            /
//    Core               =  plain                                             /
//    Code model         =  banked                                            /
//    Data model         =  large                                             /
//    Calling convention =  xdata reentrant                                   /
//    Constant location  =  data_rom                                          /
//    Dptr setup         =  1,16                                              /
//    Source file        =  C:\Texas Instruments\ZStack-CC2530-2.5.1a\Project /
//                          s\zstack\Samples\SampleApp -                      /
//                          副本\Source\my_function.c                         /
//    Command line       =  -f "C:\Texas Instruments\ZStack-CC2530-2.5.1a\Pro /
//                          jects\zstack\Samples\SampleApp -                  /
//                          副本\CC2530DB\..\..\..\Tools\CC2530DB\f8wRouter.c /
//                          fg" (-DCPU32MHZ -DROOT=__near_func                /
//                          -DMAC_CFG_APP_PENDING_QUEUE=TRUE                  /
//                          -DMAC_CFG_TX_DATA_MAX=5 -DMAC_CFG_TX_MAX=8        /
//                          -DMAC_CFG_RX_MAX=5 -DRTR_NWK) -f "C:\Texas        /
//                          Instruments\ZStack-CC2530-2.5.1a\Projects\zstack\ /
//                          Samples\SampleApp - 副本\CC2530DB\..\..\..\Tools\ /
//                          CC2530DB\f8wConfig.cfg" (-DZIGBEEPRO -DSECURE=0   /
//                          -DZG_SECURE_DYNAMIC=0 -DREFLECTOR                 /
//                          -DDEFAULT_CHANLIST=0x00000800                     /
//                          -DZDAPP_CONFIG_PAN_ID=0xFFFF                      /
//                          -DNWK_START_DELAY=100 -DEXTENDED_JOINING_RANDOM_M /
//                          ASK=0x007F -DBEACON_REQUEST_DELAY=100             /
//                          -DBEACON_REQ_DELAY_MASK=0x00FF                    /
//                          -DLINK_STATUS_JITTER_MASK=0x007F                  /
//                          -DROUTE_EXPIRY_TIME=30 -DAPSC_ACK_WAIT_DURATION_P /
//                          OLLED=3000 -DNWK_INDIRECT_MSG_TIMEOUT=7           /
//                          -DMAX_RREQ_ENTRIES=8 -DAPSC_MAX_FRAME_RETRIES=3   /
//                          -DNWK_MAX_DATA_RETRIES=2                          /
//                          -DMAX_POLL_FAILURE_RETRIES=2 -DMAX_BCAST=9        /
//                          -DAPS_MAX_GROUPS=16 -DMAX_RTG_ENTRIES=40          /
//                          -DNWK_MAX_BINDING_ENTRIES=4                       /
//                          -DMAX_BINDING_CLUSTER_IDS=4                       /
//                          "-DDEFAULT_KEY={0x01, 0x03, 0x05, 0x07, 0x09,     /
//                          0x0B, 0x0D, 0x0F, 0x00, 0x02, 0x04, 0x06, 0x08,   /
//                          0x0A, 0x0C, 0x0D}" -DMAC_MAX_FRAME_SIZE=116       /
//                          -DZDNWKMGR_MIN_TRANSMISSIONS=20 "-DCONST=const    /
//                          __code" -DGENERIC=__generic                       /
//                          -DRFD_RCVC_ALWAYS_ON=FALSE -DPOLL_RATE=1000       /
//                          -DQUEUED_POLL_RATE=100 -DRESPONSE_POLL_RATE=100)  /
//                          -DREJOIN_POLL_RATE=440 "C:\Texas                  /
//                          Instruments\ZStack-CC2530-2.5.1a\Projects\zstack\ /
//                          Samples\SampleApp - 副本\Source\my_function.c"    /
//                          -D ZTOOL_P1 -D MT_TASK -D MT_SYS_FUNC -D          /
//                          MT_ZDO_FUNC -D LCD_SUPPORTED=DEBUG -lC "C:\Texas  /
//                          Instruments\ZStack-CC2530-2.5.1a\Projects\zstack\ /
//                          Samples\SampleApp - 副本\CC2530DB\RouterEB\List\" /
//                           -lA "C:\Texas Instruments\ZStack-CC2530-2.5.1a\P /
//                          rojects\zstack\Samples\SampleApp -                /
//                          副本\CC2530DB\RouterEB\List\" --diag_suppress     /
//                          Pe001,Pa010 -o "C:\Texas                          /
//                          Instruments\ZStack-CC2530-2.5.1a\Projects\zstack\ /
//                          Samples\SampleApp - 副本\CC2530DB\RouterEB\Obj\"  /
//                          -e --no_cse --no_unroll --no_inline               /
//                          --no_code_motion --no_tbaa --debug --core=plain   /
//                          --dptr=16,1 --data_model=large                    /
//                          --code_model=banked --calling_convention=xdata_re /
//                          entrant --place_constants=data_rom                /
//                          --nr_virtual_regs 16 -I "C:\Texas                 /
//                          Instruments\ZStack-CC2530-2.5.1a\Projects\zstack\ /
//                          Samples\SampleApp - 副本\CC2530DB\" -I "C:\Texas  /
//                          Instruments\ZStack-CC2530-2.5.1a\Projects\zstack\ /
//                          Samples\SampleApp - 副本\CC2530DB\..\Source\" -I  /
//                          "C:\Texas Instruments\ZStack-CC2530-2.5.1a\Projec /
//                          ts\zstack\Samples\SampleApp -                     /
//                          副本\CC2530DB\..\..\..\ZMain\TI2530DB\" -I        /
//                          "C:\Texas Instruments\ZStack-CC2530-2.5.1a\Projec /
//                          ts\zstack\Samples\SampleApp -                     /
//                          副本\CC2530DB\..\..\..\..\..\Components\hal\inclu /
//                          de\" -I "C:\Texas Instruments\ZStack-CC2530-2.5.1 /
//                          a\Projects\zstack\Samples\SampleApp -             /
//                          副本\CC2530DB\..\..\..\..\..\Components\hal\targe /
//                          t\CC2530EB\" -I "C:\Texas                         /
//                          Instruments\ZStack-CC2530-2.5.1a\Projects\zstack\ /
//                          Samples\SampleApp - 副本\CC2530DB\..\..\..\..\..\ /
//                          Components\mac\include\" -I "C:\Texas             /
//                          Instruments\ZStack-CC2530-2.5.1a\Projects\zstack\ /
//                          Samples\SampleApp - 副本\CC2530DB\..\..\..\..\..\ /
//                          Components\mac\high_level\" -I "C:\Texas          /
//                          Instruments\ZStack-CC2530-2.5.1a\Projects\zstack\ /
//                          Samples\SampleApp - 副本\CC2530DB\..\..\..\..\..\ /
//                          Components\mac\low_level\srf04\" -I "C:\Texas     /
//                          Instruments\ZStack-CC2530-2.5.1a\Projects\zstack\ /
//                          Samples\SampleApp - 副本\CC2530DB\..\..\..\..\..\ /
//                          Components\mac\low_level\srf04\single_chip\" -I   /
//                          "C:\Texas Instruments\ZStack-CC2530-2.5.1a\Projec /
//                          ts\zstack\Samples\SampleApp -                     /
//                          副本\CC2530DB\..\..\..\..\..\Components\mt\" -I   /
//                          "C:\Texas Instruments\ZStack-CC2530-2.5.1a\Projec /
//                          ts\zstack\Samples\SampleApp -                     /
//                          副本\CC2530DB\..\..\..\..\..\Components\osal\incl /
//                          ude\" -I "C:\Texas Instruments\ZStack-CC2530-2.5. /
//                          1a\Projects\zstack\Samples\SampleApp -            /
//                          副本\CC2530DB\..\..\..\..\..\Components\services\ /
//                          saddr\" -I "C:\Texas Instruments\ZStack-CC2530-2. /
//                          5.1a\Projects\zstack\Samples\SampleApp -          /
//                          副本\CC2530DB\..\..\..\..\..\Components\services\ /
//                          sdata\" -I "C:\Texas Instruments\ZStack-CC2530-2. /
//                          5.1a\Projects\zstack\Samples\SampleApp -          /
//                          副本\CC2530DB\..\..\..\..\..\Components\stack\af\ /
//                          " -I "C:\Texas Instruments\ZStack-CC2530-2.5.1a\P /
//                          rojects\zstack\Samples\SampleApp -                /
//                          副本\CC2530DB\..\..\..\..\..\Components\stack\nwk /
//                          \" -I "C:\Texas Instruments\ZStack-CC2530-2.5.1a\ /
//                          Projects\zstack\Samples\SampleApp -               /
//                          副本\CC2530DB\..\..\..\..\..\Components\stack\sap /
//                          i\" -I "C:\Texas Instruments\ZStack-CC2530-2.5.1a /
//                          \Projects\zstack\Samples\SampleApp -              /
//                          副本\CC2530DB\..\..\..\..\..\Components\stack\sec /
//                          \" -I "C:\Texas Instruments\ZStack-CC2530-2.5.1a\ /
//                          Projects\zstack\Samples\SampleApp -               /
//                          副本\CC2530DB\..\..\..\..\..\Components\stack\sys /
//                          \" -I "C:\Texas Instruments\ZStack-CC2530-2.5.1a\ /
//                          Projects\zstack\Samples\SampleApp -               /
//                          副本\CC2530DB\..\..\..\..\..\Components\stack\zdo /
//                          \" -I "C:\Texas Instruments\ZStack-CC2530-2.5.1a\ /
//                          Projects\zstack\Samples\SampleApp -               /
//                          副本\CC2530DB\..\..\..\..\..\Components\zmac\"    /
//                          -I "C:\Texas Instruments\ZStack-CC2530-2.5.1a\Pro /
//                          jects\zstack\Samples\SampleApp -                  /
//                          副本\CC2530DB\..\..\..\..\..\Components\zmac\f8w\ /
//                          " -On --require_prototypes                        /
//    List file          =  C:\Texas Instruments\ZStack-CC2530-2.5.1a\Project /
//                          s\zstack\Samples\SampleApp -                      /
//                          副本\CC2530DB\RouterEB\List\my_function.s51       /
//                                                                            /
//                                                                            /
///////////////////////////////////////////////////////////////////////////////

        NAME my_function

        RTMODEL "__SystemLibrary", "CLib"
        RTMODEL "__calling_convention", "xdata_reentrant"
        RTMODEL "__code_model", "banked"
        RTMODEL "__core", "plain"
        RTMODEL "__data_model", "large"
        RTMODEL "__dptr_size", "16"
        RTMODEL "__extended_stack", "disabled"
        RTMODEL "__location_for_constants", "data"
        RTMODEL "__number_of_dptrs", "1"
        RTMODEL "__rt_version", "1"

        RSEG DOVERLAY:DATA:NOROOT(0)
        RSEG IOVERLAY:IDATA:NOROOT(0)
        RSEG ISTACK:IDATA:NOROOT(0)
        RSEG PSTACK:XDATA:NOROOT(0)
        RSEG XSTACK:XDATA:NOROOT(0)

        EXTERN ?BANKED_ENTER_XDATA
        EXTERN ?BANKED_LEAVE_XDATA
        EXTERN ?BDISPATCH
        EXTERN ?V0
        EXTERN __INIT_XDATA_I
        EXTERN __INIT_XDATA_Z

        PUBLIC ??Absence_check?relay
        FUNCTION ??Absence_check?relay,0203H
        PUBLIC ??NeverDect?relay
        FUNCTION ??NeverDect?relay,0203H
        PUBLIC ??SerialCMD?relay
        FUNCTION ??SerialCMD?relay,0203H
        PUBLIC Absence_check
        FUNCTION Absence_check,021203H
        ARGFRAME XSTACK, 0, STACK
        LOCFRAME XSTACK, 10, STACK
        PUBLIC Absence_times
        PUBLIC IgnoreDevice
        PUBLIC NeverDect
        FUNCTION NeverDect,0203H
        ARGFRAME XSTACK, 9, STACK
        ARGFRAME IOVERLAY, 0, STATIC
        ARGFRAME DOVERLAY, 0, STATIC
        LOCFRAME XSTACK, 10, STACK
        PUBLIC SerialCMD
        FUNCTION SerialCMD,021203H
        ARGFRAME XSTACK, 0, STACK
        LOCFRAME XSTACK, 9, STACK
        PUBLIC State_data
        PUBLIC conversion
        PUBLIC f
        
        CFI Names cfiNames0
        CFI StackFrame CFA_SP SP IDATA
        CFI StackFrame CFA_PSP16 PSP16 XDATA
        CFI StackFrame CFA_XSP16 XSP16 XDATA
        CFI StaticOverlayFrame CFA_IOVERLAY IOVERLAY
        CFI StaticOverlayFrame CFA_DOVERLAY DOVERLAY
        CFI Resource `PSW.CY`:1, `B.BR0`:1, `B.BR1`:1, `B.BR2`:1, `B.BR3`:1
        CFI Resource `B.BR4`:1, `B.BR5`:1, `B.BR6`:1, `B.BR7`:1, `VB.BR8`:1
        CFI Resource `VB.BR9`:1, `VB.BR10`:1, `VB.BR11`:1, `VB.BR12`:1
        CFI Resource `VB.BR13`:1, `VB.BR14`:1, `VB.BR15`:1, VB:8, B:8, A:8
        CFI Resource PSW:8, DPL0:8, DPH0:8, R0:8, R1:8, R2:8, R3:8, R4:8, R5:8
        CFI Resource R6:8, R7:8, V0:8, V1:8, V2:8, V3:8, V4:8, V5:8, V6:8, V7:8
        CFI Resource V8:8, V9:8, V10:8, V11:8, V12:8, V13:8, V14:8, V15:8, SP:8
        CFI Resource PSPH:8, PSPL:8, PSP16:16, XSPH:8, XSPL:8, XSP16:16
        CFI VirtualResource ?RET:24
        CFI Resource ?BRET_EXT:8
        CFI VirtualResource ?RET_HIGH:8, ?RET_LOW:8
        CFI ResourceParts PSP16 PSPH, PSPL
        CFI ResourceParts XSP16 XSPH, XSPL
        CFI ResourceParts ?RET ?BRET_EXT, ?RET_HIGH, ?RET_LOW
        CFI EndNames cfiNames0
        
        CFI Common cfiCommon0 Using cfiNames0
        CFI CodeAlign 1
        CFI DataAlign -1
        CFI ReturnAddress ?RET CODE
        CFI CFA_DOVERLAY Used
        CFI CFA_IOVERLAY Used
        CFI CFA_SP SP+-3
        CFI CFA_PSP16 PSP16+0
        CFI CFA_XSP16 XSP16+0
        CFI `PSW.CY` SameValue
        CFI `B.BR0` SameValue
        CFI `B.BR1` SameValue
        CFI `B.BR2` SameValue
        CFI `B.BR3` SameValue
        CFI `B.BR4` SameValue
        CFI `B.BR5` SameValue
        CFI `B.BR6` SameValue
        CFI `B.BR7` SameValue
        CFI `VB.BR8` SameValue
        CFI `VB.BR9` SameValue
        CFI `VB.BR10` SameValue
        CFI `VB.BR11` SameValue
        CFI `VB.BR12` SameValue
        CFI `VB.BR13` SameValue
        CFI `VB.BR14` SameValue
        CFI `VB.BR15` SameValue
        CFI VB SameValue
        CFI B Undefined
        CFI A Undefined
        CFI PSW SameValue
        CFI DPL0 SameValue
        CFI DPH0 SameValue
        CFI R0 Undefined
        CFI R1 Undefined
        CFI R2 Undefined
        CFI R3 Undefined
        CFI R4 Undefined
        CFI R5 Undefined
        CFI R6 SameValue
        CFI R7 SameValue
        CFI V0 SameValue
        CFI V1 SameValue
        CFI V2 SameValue
        CFI V3 SameValue
        CFI V4 SameValue
        CFI V5 SameValue
        CFI V6 SameValue
        CFI V7 SameValue
        CFI V8 SameValue
        CFI V9 SameValue
        CFI V10 SameValue
        CFI V11 SameValue
        CFI V12 SameValue
        CFI V13 SameValue
        CFI V14 SameValue
        CFI V15 SameValue
        CFI PSPH Undefined
        CFI PSPL Undefined
        CFI XSPH Undefined
        CFI XSPL Undefined
        CFI ?RET Concat
        CFI ?BRET_EXT Frame(CFA_SP, 3)
        CFI ?RET_HIGH Frame(CFA_SP, 2)
        CFI ?RET_LOW Frame(CFA_SP, 1)
        CFI EndCommon cfiCommon0
        
HalUARTWrite        SYMBOL "HalUARTWrite"
??HalUARTWrite?relay SYMBOL "?relay", HalUARTWrite
Absence_check       SYMBOL "Absence_check"
??Absence_check?relay SYMBOL "?relay", Absence_check
NeverDect           SYMBOL "NeverDect"
??NeverDect?relay   SYMBOL "?relay", NeverDect
SerialCMD           SYMBOL "SerialCMD"
??SerialCMD?relay   SYMBOL "?relay", SerialCMD

        EXTERN HalUARTWrite
        FUNCTION HalUARTWrite,0202H
        ARGFRAME ISTACK, 0, STACK
        ARGFRAME PSTACK, 0, STACK
        ARGFRAME XSTACK, 10, STACK
        ARGFRAME IOVERLAY, 0, STATIC
        ARGFRAME DOVERLAY, 0, STATIC
        EXTERN ??HalUARTWrite?relay
        FUNCTION ??HalUARTWrite?relay,00H

// C:\Texas Instruments\ZStack-CC2530-2.5.1a\Projects\zstack\Samples\SampleApp - 副本\Source\my_function.c
//    1 /*串口*/
//    2 #include "MT_UART.h"
//    3 #include "MT.h"
//    4 #include "my_function.h"

        RSEG XDATA_Z:XDATA:NOROOT(0)
        DATA16
// uint16 f
f:
        DS 2
        REQUIRE __INIT_XDATA_Z

        RSEG XDATA_I:XDATA:NOROOT(0)
// uint8 conversion[3]
conversion:
        DATA8
        DS 3
        REQUIRE `?<Initializer for conversion>`
        REQUIRE __INIT_XDATA_I

        RSEG XDATA_I:XDATA:NOROOT(0)
// uint8 State_data[3]
State_data:
        DATA8
        DS 3
        REQUIRE `?<Initializer for State_data>`
        REQUIRE __INIT_XDATA_I

        RSEG XDATA_Z:XDATA:NOROOT(0)
        DATA8
// uint8 Absence_times[3]
Absence_times:
        DS 3
        REQUIRE __INIT_XDATA_Z

        RSEG XDATA_I:XDATA:NOROOT(0)
// uint8 IgnoreDevice[3]
IgnoreDevice:
        DATA8
        DS 3
        REQUIRE `?<Initializer for IgnoreDevice>`
        REQUIRE __INIT_XDATA_I
//    5 #include <stdlib.h>
//    6 /**************************变量声明************************************/
//    7 //extern uint8 Absence_times[3];//={0,0,0};
//    8 //uint8 State_data[3]={'0','0','0'};//林山定义了一个状态数组，用于记录各个端点的在线状态，目前先假设有3个端点。
//    9 /**************************函数声明************************************/
//   10 //void Absence_check(uint8 x);//狗清定义的节点缺席检测函数,有x次签到不到就报警。
//   11 //void BT2Z_transmit(uint8 *group);//狗清定义的蓝牙到zigbee信息搬运函数
//   12 /**************************函数描述************************************/

        RSEG BANKED_CODE:CODE:NOROOT(0)
//   13 void Absence_check(uint8 x)
Absence_check:
        CFI Block cfiBlock0 Using cfiCommon0
        CFI Function Absence_check
        CODE
//   14 {
        FUNCALL Absence_check, HalUARTWrite
        LOCFRAME ISTACK, 0, STACK
        LOCFRAME PSTACK, 0, STACK
        LOCFRAME XSTACK, 10, STACK
        LOCFRAME IOVERLAY, 0, STATIC
        LOCFRAME DOVERLAY, 0, STATIC
        ARGFRAME ISTACK, 0, STACK
        ARGFRAME PSTACK, 0, STACK
        ARGFRAME XSTACK, 10, STACK
        ARGFRAME IOVERLAY, 0, STATIC
        ARGFRAME DOVERLAY, 0, STATIC
        FUNCALL Absence_check, HalUARTWrite
        LOCFRAME ISTACK, 0, STACK
        LOCFRAME PSTACK, 0, STACK
        LOCFRAME XSTACK, 10, STACK
        LOCFRAME IOVERLAY, 0, STATIC
        LOCFRAME DOVERLAY, 0, STATIC
        ARGFRAME ISTACK, 0, STACK
        ARGFRAME PSTACK, 0, STACK
        ARGFRAME XSTACK, 10, STACK
        ARGFRAME IOVERLAY, 0, STATIC
        ARGFRAME DOVERLAY, 0, STATIC
        FUNCALL Absence_check, HalUARTWrite
        LOCFRAME ISTACK, 0, STACK
        LOCFRAME PSTACK, 0, STACK
        LOCFRAME XSTACK, 10, STACK
        LOCFRAME IOVERLAY, 0, STATIC
        LOCFRAME DOVERLAY, 0, STATIC
        ARGFRAME ISTACK, 0, STACK
        ARGFRAME PSTACK, 0, STACK
        ARGFRAME XSTACK, 10, STACK
        ARGFRAME IOVERLAY, 0, STATIC
        ARGFRAME DOVERLAY, 0, STATIC
        MOV     A,#-0xa
        LCALL   ?BANKED_ENTER_XDATA
        CFI DPH0 load(1, XDATA, add(CFA_XSP16, literal(-1)))
        CFI DPL0 load(1, XDATA, add(CFA_XSP16, literal(-2)))
        CFI ?BRET_EXT load(1, XDATA, add(CFA_XSP16, literal(-3)))
        CFI ?RET_HIGH load(1, XDATA, add(CFA_XSP16, literal(-4)))
        CFI ?RET_LOW load(1, XDATA, add(CFA_XSP16, literal(-5)))
        CFI R7 load(1, XDATA, add(CFA_XSP16, literal(-6)))
        CFI V1 load(1, XDATA, add(CFA_XSP16, literal(-7)))
        CFI V0 load(1, XDATA, add(CFA_XSP16, literal(-8)))
        CFI VB load(1, XDATA, add(CFA_XSP16, literal(-9)))
        CFI R6 load(1, XDATA, add(CFA_XSP16, literal(-10)))
        CFI CFA_SP SP+0
        CFI CFA_XSP16 add(XSP16, 10)
        ; Saved register size: 10
        ; Auto size: 0
        MOV     A,R1
        MOV     R6,A
//   15   uint8 i;
//   16   //char string[3];
//   17   for(i=0;i<3;i++)
        MOV     R7,#0x0
??Absence_check_0:
        MOV     A,R7
        CLR     C
        SUBB    A,#0x3
        JC      $+5
        LJMP    ??Absence_check_1 & 0xFFFF
//   18   {
//   19     if (State_data[i]=='0')
        MOV     ?V0 + 0,R7
        MOV     ?V0 + 1,#0x0
        MOV     A,#State_data & 0xff
        ADD     A,?V0 + 0
        MOV     DPL,A
        MOV     A,#(State_data >> 8) & 0xff
        ADDC    A,?V0 + 1
        MOV     DPH,A
        MOVX    A,@DPTR
        XRL     A,#0x30
        JNZ     ??Absence_check_2
//   20     {
//   21        Absence_times[i]++;
        MOV     ?V0 + 0,R7
        MOV     ?V0 + 1,#0x0
        MOV     A,#Absence_times & 0xff
        ADD     A,?V0 + 0
        MOV     DPL,A
        MOV     A,#(Absence_times >> 8) & 0xff
        ADDC    A,?V0 + 1
        MOV     DPH,A
        MOVX    A,@DPTR
        ADD     A,#0x1
        MOVX    @DPTR,A
//   22     }
//   23     if (State_data[i]=='1')
??Absence_check_2:
        MOV     ?V0 + 0,R7
        MOV     ?V0 + 1,#0x0
        MOV     A,#State_data & 0xff
        ADD     A,?V0 + 0
        MOV     DPL,A
        MOV     A,#(State_data >> 8) & 0xff
        ADDC    A,?V0 + 1
        MOV     DPH,A
        MOVX    A,@DPTR
        XRL     A,#0x31
        JNZ     ??Absence_check_3
//   24     {
//   25       Absence_times[i]=0;
        MOV     ?V0 + 0,R7
        MOV     ?V0 + 1,#0x0
        MOV     A,#Absence_times & 0xff
        ADD     A,?V0 + 0
        MOV     DPL,A
        MOV     A,#(Absence_times >> 8) & 0xff
        ADDC    A,?V0 + 1
        MOV     DPH,A
        MOV     A,#0x0
        MOVX    @DPTR,A
//   26       State_data[i]='0';
        MOV     ?V0 + 0,R7
        MOV     ?V0 + 1,#0x0
        MOV     A,#State_data & 0xff
        ADD     A,?V0 + 0
        MOV     DPL,A
        MOV     A,#(State_data >> 8) & 0xff
        ADDC    A,?V0 + 1
        MOV     DPH,A
        MOV     A,#0x30
        MOVX    @DPTR,A
//   27     }
//   28     if((Absence_times[i]>=x) && (IgnoreDevice[i]=='0'))
??Absence_check_3:
        MOV     ?V0 + 0,R7
        MOV     ?V0 + 1,#0x0
        MOV     A,#Absence_times & 0xff
        ADD     A,?V0 + 0
        MOV     DPL,A
        MOV     A,#(Absence_times >> 8) & 0xff
        ADDC    A,?V0 + 1
        MOV     DPH,A
        MOVX    A,@DPTR
        CLR     C
        SUBB    A,R6
        JC      ??Absence_check_4
        MOV     ?V0 + 0,R7
        MOV     ?V0 + 1,#0x0
        MOV     A,#IgnoreDevice & 0xff
        ADD     A,?V0 + 0
        MOV     DPL,A
        MOV     A,#(IgnoreDevice >> 8) & 0xff
        ADDC    A,?V0 + 1
        MOV     DPH,A
        MOVX    A,@DPTR
        XRL     A,#0x30
        JNZ     ??Absence_check_4
//   29     {
//   30       //itoa(i,string,10);
//   31       HalUARTWrite(0, "device ",7);
        ; Setup parameters for call to function HalUARTWrite
        MOV     R4,#0x7
        MOV     R5,#0x0
        MOV     R2,#`?<Constant "device ">` & 0xff
        MOV     R3,#(`?<Constant "device ">` >> 8) & 0xff
        MOV     R1,#0x0
        LCALL   ??HalUARTWrite?relay
//   32       HalUARTWrite(0,&conversion[i],1);
        ; Setup parameters for call to function HalUARTWrite
        MOV     R4,#0x1
        MOV     R5,#0x0
        MOV     ?V0 + 0,R7
        MOV     ?V0 + 1,#0x0
        MOV     A,#conversion & 0xff
        ADD     A,?V0 + 0
        MOV     R2,A
        MOV     A,#(conversion >> 8) & 0xff
        ADDC    A,?V0 + 1
        MOV     R3,A
        MOV     R1,#0x0
        LCALL   ??HalUARTWrite?relay
//   33       HalUARTWrite(0, " is offline\n",12);//warning!!
        ; Setup parameters for call to function HalUARTWrite
        MOV     R4,#0xc
        MOV     R5,#0x0
        MOV     R2,#`?<Constant " is offline\\n">` & 0xff
        MOV     R3,#(`?<Constant " is offline\\n">` >> 8) & 0xff
        MOV     R1,#0x0
        LCALL   ??HalUARTWrite?relay
//   34     }
//   35   }
??Absence_check_4:
        INC     R7
        LJMP    ??Absence_check_0 & 0xFFFF
//   36 }
??Absence_check_1:
        MOV     R7,#0x2
        LJMP    ?BANKED_LEAVE_XDATA
        CFI EndBlock cfiBlock0
//   37 

        RSEG BANKED_CODE:CODE:NOROOT(0)
//   38 void NeverDect(uint8 DeviceID)
NeverDect:
        CFI Block cfiBlock1 Using cfiCommon0
        CFI Function NeverDect
        CODE
//   39 {
        MOV     A,#-0xa
        LCALL   ?BANKED_ENTER_XDATA
        CFI DPH0 load(1, XDATA, add(CFA_XSP16, literal(-1)))
        CFI DPL0 load(1, XDATA, add(CFA_XSP16, literal(-2)))
        CFI ?BRET_EXT load(1, XDATA, add(CFA_XSP16, literal(-3)))
        CFI ?RET_HIGH load(1, XDATA, add(CFA_XSP16, literal(-4)))
        CFI ?RET_LOW load(1, XDATA, add(CFA_XSP16, literal(-5)))
        CFI R7 load(1, XDATA, add(CFA_XSP16, literal(-6)))
        CFI V1 load(1, XDATA, add(CFA_XSP16, literal(-7)))
        CFI V0 load(1, XDATA, add(CFA_XSP16, literal(-8)))
        CFI VB load(1, XDATA, add(CFA_XSP16, literal(-9)))
        CFI R6 load(1, XDATA, add(CFA_XSP16, literal(-10)))
        CFI CFA_SP SP+0
        CFI CFA_XSP16 add(XSP16, 10)
        ; Saved register size: 10
        ; Auto size: 0
//   40   IgnoreDevice[DeviceID]='1';
        MOV     ?V0 + 0,R1
        MOV     ?V0 + 1,#0x0
        MOV     A,#IgnoreDevice & 0xff
        ADD     A,?V0 + 0
        MOV     DPL,A
        MOV     A,#(IgnoreDevice >> 8) & 0xff
        ADDC    A,?V0 + 1
        MOV     DPH,A
        MOV     A,#0x31
        MOVX    @DPTR,A
//   41 }
        MOV     R7,#0x2
        LJMP    ?BANKED_LEAVE_XDATA
        CFI EndBlock cfiBlock1

        RSEG BANKED_CODE:CODE:NOROOT(0)
//   42 void SerialCMD(mtOSALSerialData_t *cmdMsg)
SerialCMD:
        CFI Block cfiBlock2 Using cfiCommon0
        CFI Function SerialCMD
        CODE
//   43 {
        FUNCALL SerialCMD, NeverDect
        LOCFRAME ISTACK, 0, STACK
        LOCFRAME PSTACK, 0, STACK
        LOCFRAME XSTACK, 9, STACK
        LOCFRAME IOVERLAY, 0, STATIC
        LOCFRAME DOVERLAY, 0, STATIC
        ARGFRAME ISTACK, 0, STACK
        ARGFRAME PSTACK, 0, STACK
        ARGFRAME XSTACK, 9, STACK
        ARGFRAME IOVERLAY, 0, STATIC
        ARGFRAME DOVERLAY, 0, STATIC
        MOV     A,#-0x9
        LCALL   ?BANKED_ENTER_XDATA
        CFI DPH0 load(1, XDATA, add(CFA_XSP16, literal(-1)))
        CFI DPL0 load(1, XDATA, add(CFA_XSP16, literal(-2)))
        CFI ?BRET_EXT load(1, XDATA, add(CFA_XSP16, literal(-3)))
        CFI ?RET_HIGH load(1, XDATA, add(CFA_XSP16, literal(-4)))
        CFI ?RET_LOW load(1, XDATA, add(CFA_XSP16, literal(-5)))
        CFI R7 load(1, XDATA, add(CFA_XSP16, literal(-6)))
        CFI V0 load(1, XDATA, add(CFA_XSP16, literal(-7)))
        CFI VB load(1, XDATA, add(CFA_XSP16, literal(-8)))
        CFI R6 load(1, XDATA, add(CFA_XSP16, literal(-9)))
        CFI CFA_SP SP+0
        CFI CFA_XSP16 add(XSP16, 9)
        ; Saved register size: 9
        ; Auto size: 0
        MOV     A,R2
        MOV     R6,A
        MOV     A,R3
        MOV     R7,A
//   44   switch(cmdMsg->msg[0])
        MOV     DPL,R6
        MOV     DPH,R7
        INC     DPTR
        INC     DPTR
        MOVX    A,@DPTR
        MOV     R0,A
        INC     DPTR
        MOVX    A,@DPTR
        MOV     DPH,A
        MOV     DPL,R0
        MOVX    A,@DPTR
        XRL     A,#0x30
        JNZ     ??SerialCMD_0
//   45   {
//   46     case IgnoreEvent:
//   47       NeverDect((cmdMsg->msg[2])-80);//这个数组的下标应该改成int型。
        ; Setup parameters for call to function NeverDect
        MOV     DPL,R6
        MOV     DPH,R7
        INC     DPTR
        INC     DPTR
        MOVX    A,@DPTR
        MOV     R0,A
        INC     DPTR
        MOVX    A,@DPTR
        MOV     DPH,A
        MOV     DPL,R0
        INC     DPTR
        INC     DPTR
        MOVX    A,@DPTR
        ADD     A,#-0x50
        MOV     R1,A
        LCALL   ??NeverDect?relay
//   48       break;
//   49   }
//   50   
//   51 }
??SerialCMD_0:
        MOV     R7,#0x1
        LJMP    ?BANKED_LEAVE_XDATA
        CFI EndBlock cfiBlock2

        RSEG XDATA_ID:CODE:NOROOT(0)
`?<Initializer for conversion>`:
        DATA8
        DB 48
        DB 49
        DB 50

        RSEG XDATA_ID:CODE:NOROOT(0)
`?<Initializer for State_data>`:
        DATA8
        DB 48
        DB 48
        DB 48

        RSEG XDATA_ID:CODE:NOROOT(0)
`?<Initializer for IgnoreDevice>`:
        DATA8
        DB 48
        DB 48
        DB 48

        RSEG BANK_RELAYS:CODE:REORDER:NOROOT(0)
??Absence_check?relay:
        LCALL   ?BDISPATCH
        DATA
        DC24    Absence_check

        RSEG BANK_RELAYS:CODE:REORDER:NOROOT(0)
??NeverDect?relay:
        LCALL   ?BDISPATCH
        DATA
        DC24    NeverDect

        RSEG BANK_RELAYS:CODE:REORDER:NOROOT(0)
??SerialCMD?relay:
        LCALL   ?BDISPATCH
        DATA
        DC24    SerialCMD

        RSEG XDATA_ROM_C:CONST:REORDER:NOROOT(0)
        DATA8
`?<Constant "device ">`:
        DB "device "

        RSEG XDATA_ROM_C:CONST:REORDER:NOROOT(0)
        DATA8
`?<Constant " is offline\\n">`:
        DB " is offline\012"

        END
// 
// 312 bytes in segment BANKED_CODE
//  18 bytes in segment BANK_RELAYS
//   9 bytes in segment XDATA_I
//   9 bytes in segment XDATA_ID
//  21 bytes in segment XDATA_ROM_C
//   5 bytes in segment XDATA_Z
// 
// 339 bytes of CODE  memory
//  21 bytes of CONST memory
//  14 bytes of XDATA memory
//
//Errors: none
//Warnings: none
